target datalayout = "e-m:e-p270:32:32-p271:32:32-p272:64:64-i64:64-i128:128-f80:128-n8:16:32:64-S128"
target triple = "x86_64-pc-linux-gnu"

%struct.expert_field = type { i32, i32 }

@ei_gtpv2_ie_data_not_dissected = internal global %struct.expert_field zeroinitializer, align 4
@.str.3 = private unnamed_addr constant [37 x i8] c"The rest of the IE not dissected yet\00", align 1
@hf_gtpv2_spare_bits = internal global i32 0, align 4
@hf_gtpv2_mm_context_sm = internal global i32 0, align 4
@hf_gtpv2_mm_context_drxi = internal global i32 0, align 4
@hf_gtpv2_mm_context_cksn = internal global i32 0, align 4
@hf_gtpv2_mm_context_nr_tri = internal global i32 0, align 4
@hf_gtpv2_mm_context_used_cipher = internal global i32 0, align 4
@hf_gtpv2_mm_context_rand = internal global i32 0, align 4
@hf_gtpv2_mm_context_drx = internal global i32 0, align 4
@hf_gtpv2_mm_context_uamb_ri = internal global i32 0, align 4
@hf_gtpv2_mm_context_samb_ri = internal global i32 0, align 4
@hf_gtpv2_mm_context_sres = internal global i32 0, align 4
@hf_gtpv2_mm_context_kc = internal global i32 0, align 4
@ett_gtpv2_mm_context_flag = internal global i32 0, align 4
@ett_gtpv2_mm_context_auth_tri = internal global i32 0, align 4
@.str.1809 = private unnamed_addr constant [17 x i8] c"MM Context flags\00", align 1
@.str.1810 = private unnamed_addr constant [26 x i8] c"Authentication Triplet %u\00", align 1

; Function Attrs: null_pointer_is_valid sspstrong uwtable
define internal i32 @dissect_gtpv2_authentication_triplets(ptr noundef %0, ptr noundef %1, i32 noundef %2, i8 noundef zeroext %3) #1 {
  %5 = alloca ptr, align 8
  %6 = alloca ptr, align 8
  %7 = alloca i32, align 4
  %8 = alloca i8, align 1
  %9 = alloca ptr, align 8
  %10 = alloca i32, align 4
  store ptr %0, ptr %5, align 8
  store ptr %1, ptr %6, align 8
  store i32 %2, ptr %7, align 4
  store i8 %3, ptr %8, align 1
  call void @llvm.lifetime.start.p0(i64 8, ptr %9) #11
  call void @llvm.lifetime.start.p0(i64 4, ptr %10) #11
  store i32 0, ptr %10, align 4
  br label %11

11:                                               ; preds = %44, %4
  %12 = load i32, ptr %10, align 4
  %13 = load i8, ptr %8, align 1
  %14 = zext i8 %13 to i32
  %15 = icmp slt i32 %12, %14
  br i1 %15, label %16, label %47

16:                                               ; preds = %11
  %17 = load ptr, ptr %6, align 8
  %18 = load ptr, ptr %5, align 8
  %19 = load i32, ptr %7, align 4
  %20 = load i32, ptr @ett_gtpv2_mm_context_auth_tri, align 4
  %21 = load i32, ptr %10, align 4
  %22 = call ptr (ptr, ptr, i32, i32, i32, ptr, ptr, ...) @proto_tree_add_subtree_format(ptr noundef %17, ptr noundef %18, i32 noundef %19, i32 noundef 0, i32 noundef %20, ptr noundef null, ptr noundef @.str.1810, i32 noundef %21)
  store ptr %22, ptr %9, align 8
  %23 = load ptr, ptr %9, align 8
  %24 = load i32, ptr @hf_gtpv2_mm_context_rand, align 4
  %25 = load ptr, ptr %5, align 8
  %26 = load i32, ptr %7, align 4
  %27 = call ptr @proto_tree_add_item(ptr noundef %23, i32 noundef %24, ptr noundef %25, i32 noundef %26, i32 noundef 16, i32 noundef 0)
  %28 = load i32, ptr %7, align 4
  %29 = add i32 %28, 16
  store i32 %29, ptr %7, align 4
  %30 = load ptr, ptr %9, align 8
  %31 = load i32, ptr @hf_gtpv2_mm_context_sres, align 4
  %32 = load ptr, ptr %5, align 8
  %33 = load i32, ptr %7, align 4
  %34 = call ptr @proto_tree_add_item(ptr noundef %30, i32 noundef %31, ptr noundef %32, i32 noundef %33, i32 noundef 4, i32 noundef 0)
  %35 = load i32, ptr %7, align 4
  %36 = add i32 %35, 4
  store i32 %36, ptr %7, align 4
  %37 = load ptr, ptr %9, align 8
  %38 = load i32, ptr @hf_gtpv2_mm_context_kc, align 4
  %39 = load ptr, ptr %5, align 8
  %40 = load i32, ptr %7, align 4
  %41 = call ptr @proto_tree_add_item(ptr noundef %37, i32 noundef %38, ptr noundef %39, i32 noundef %40, i32 noundef 8, i32 noundef 0)
  %42 = load i32, ptr %7, align 4
  %43 = add i32 %42, 8
  store i32 %43, ptr %7, align 4
  br label %44

44:                                               ; preds = %16
  %45 = load i32, ptr %10, align 4
  %46 = add i32 %45, 1
  store i32 %46, ptr %10, align 4
  br label %11, !llvm.loop !26

47:                                               ; preds = %11
  %48 = load i32, ptr %7, align 4
  call void @llvm.lifetime.end.p0(i64 4, ptr %10) #11
  call void @llvm.lifetime.end.p0(i64 8, ptr %9) #11
  ret i32 %48
}

; Function Attrs: null_pointer_is_valid sspstrong uwtable
define internal void @dissect_gtpv2_mm_context_gsm_t(ptr noundef %0, ptr noundef %1, ptr noundef %2, ptr noundef %3, i16 noundef zeroext %4, i8 noundef zeroext %5, i8 noundef zeroext %6, ptr noundef %7) #1 {
  %9 = alloca ptr, align 8
  %10 = alloca ptr, align 8
  %11 = alloca ptr, align 8
  %12 = alloca ptr, align 8
  %13 = alloca i16, align 2
  %14 = alloca i8, align 1
  %15 = alloca i8, align 1
  %16 = alloca ptr, align 8
  %17 = alloca ptr, align 8
  %18 = alloca i32, align 4
  %19 = alloca i8, align 1
  %20 = alloca i8, align 1
  %21 = alloca i8, align 1
  %22 = alloca i8, align 1
  %23 = alloca i8, align 1
  store ptr %0, ptr %9, align 8
  store ptr %1, ptr %10, align 8
  store ptr %2, ptr %11, align 8
  store ptr %3, ptr %12, align 8
  store i16 %4, ptr %13, align 2
  store i8 %5, ptr %14, align 1
  store i8 %6, ptr %15, align 1
  store ptr %7, ptr %16, align 8
  call void @llvm.lifetime.start.p0(i64 8, ptr %17) #11
  call void @llvm.lifetime.start.p0(i64 4, ptr %18) #11
  call void @llvm.lifetime.start.p0(i64 1, ptr %19) #11
  call void @llvm.lifetime.start.p0(i64 1, ptr %20) #11
  call void @llvm.lifetime.start.p0(i64 1, ptr %21) #11
  call void @llvm.lifetime.start.p0(i64 1, ptr %22) #11
  call void @llvm.lifetime.start.p0(i64 1, ptr %23) #11
  store i32 0, ptr %18, align 4
  %24 = load ptr, ptr %11, align 8
  %25 = load ptr, ptr %9, align 8
  %26 = load i32, ptr %18, align 4
  %27 = load i32, ptr @ett_gtpv2_mm_context_flag, align 4
  %28 = call ptr @proto_tree_add_subtree(ptr noundef %24, ptr noundef %25, i32 noundef %26, i32 noundef 3, i32 noundef %27, ptr noundef null, ptr noundef @.str.1809)
  store ptr %28, ptr %17, align 8
  %29 = load ptr, ptr %9, align 8
  %30 = load i32, ptr %18, align 4
  %31 = call zeroext i8 @tvb_get_uint8(ptr noundef %29, i32 noundef %30)
  %32 = zext i8 %31 to i32
  %33 = and i32 %32, 8
  %34 = ashr i32 %33, 3
  %35 = trunc i32 %34 to i8
  store i8 %35, ptr %20, align 1
  %36 = load ptr, ptr %17, align 8
  %37 = load i32, ptr @hf_gtpv2_mm_context_sm, align 4
  %38 = load ptr, ptr %9, align 8
  %39 = load i32, ptr %18, align 4
  %40 = call ptr @proto_tree_add_item(ptr noundef %36, i32 noundef %37, ptr noundef %38, i32 noundef %39, i32 noundef 1, i32 noundef 0)
  %41 = load ptr, ptr %17, align 8
  %42 = load i32, ptr @hf_gtpv2_spare_bits, align 4
  %43 = load ptr, ptr %9, align 8
  %44 = load i32, ptr %18, align 4
  %45 = shl i32 %44, 3
  %46 = call ptr @proto_tree_add_bits_item(ptr noundef %41, i32 noundef %42, ptr noundef %43, i32 noundef %45, i32 noundef 1, i32 noundef 0)
  %47 = load ptr, ptr %17, align 8
  %48 = load i32, ptr @hf_gtpv2_mm_context_drxi, align 4
  %49 = load ptr, ptr %9, align 8
  %50 = load i32, ptr %18, align 4
  %51 = call ptr @proto_tree_add_item(ptr noundef %47, i32 noundef %48, ptr noundef %49, i32 noundef %50, i32 noundef 1, i32 noundef 0)
  %52 = load ptr, ptr %17, align 8
  %53 = load i32, ptr @hf_gtpv2_mm_context_cksn, align 4
  %54 = load ptr, ptr %9, align 8
  %55 = load i32, ptr %18, align 4
  %56 = call ptr @proto_tree_add_item(ptr noundef %52, i32 noundef %53, ptr noundef %54, i32 noundef %55, i32 noundef 1, i32 noundef 0)
  %57 = load i32, ptr %18, align 4
  %58 = add i32 %57, 1
  store i32 %58, ptr %18, align 4
  %59 = load ptr, ptr %9, align 8
  %60 = load i32, ptr %18, align 4
  %61 = call zeroext i8 @tvb_get_uint8(ptr noundef %59, i32 noundef %60)
  store i8 %61, ptr %19, align 1
  %62 = load i8, ptr %19, align 1
  %63 = zext i8 %62 to i32
  %64 = ashr i32 %63, 5
  %65 = trunc i32 %64 to i8
  store i8 %65, ptr %21, align 1
  %66 = load i8, ptr %19, align 1
  %67 = zext i8 %66 to i32
  %68 = and i32 %67, 2
  %69 = ashr i32 %68, 1
  %70 = trunc i32 %69 to i8
  store i8 %70, ptr %22, align 1
  %71 = load i8, ptr %19, align 1
  %72 = zext i8 %71 to i32
  %73 = and i32 %72, 1
  %74 = trunc i32 %73 to i8
  store i8 %74, ptr %23, align 1
  %75 = load ptr, ptr %17, align 8
  %76 = load i32, ptr @hf_gtpv2_mm_context_nr_tri, align 4
  %77 = load ptr, ptr %9, align 8
  %78 = load i32, ptr %18, align 4
  %79 = call ptr @proto_tree_add_item(ptr noundef %75, i32 noundef %76, ptr noundef %77, i32 noundef %78, i32 noundef 1, i32 noundef 0)
  %80 = load ptr, ptr %17, align 8
  %81 = load i32, ptr @hf_gtpv2_spare_bits, align 4
  %82 = load ptr, ptr %9, align 8
  %83 = load i32, ptr %18, align 4
  %84 = shl i32 %83, 3
  %85 = add i32 %84, 3
  %86 = call ptr @proto_tree_add_bits_item(ptr noundef %80, i32 noundef %81, ptr noundef %82, i32 noundef %85, i32 noundef 3, i32 noundef 0)
  %87 = load ptr, ptr %17, align 8
  %88 = load i32, ptr @hf_gtpv2_mm_context_uamb_ri, align 4
  %89 = load ptr, ptr %9, align 8
  %90 = load i32, ptr %18, align 4
  %91 = call ptr @proto_tree_add_item(ptr noundef %87, i32 noundef %88, ptr noundef %89, i32 noundef %90, i32 noundef 1, i32 noundef 0)
  %92 = load ptr, ptr %17, align 8
  %93 = load i32, ptr @hf_gtpv2_mm_context_samb_ri, align 4
  %94 = load ptr, ptr %9, align 8
  %95 = load i32, ptr %18, align 4
  %96 = shl i32 %95, 3
  %97 = add i32 %96, 7
  %98 = call ptr @proto_tree_add_bits_item(ptr noundef %92, i32 noundef %93, ptr noundef %94, i32 noundef %97, i32 noundef 1, i32 noundef 0)
  %99 = load i32, ptr %18, align 4
  %100 = add i32 %99, 1
  store i32 %100, ptr %18, align 4
  %101 = load ptr, ptr %17, align 8
  %102 = load i32, ptr @hf_gtpv2_spare_bits, align 4
  %103 = load ptr, ptr %9, align 8
  %104 = load i32, ptr %18, align 4
  %105 = shl i32 %104, 3
  %106 = call ptr @proto_tree_add_bits_item(ptr noundef %101, i32 noundef %102, ptr noundef %103, i32 noundef %105, i32 noundef 5, i32 noundef 0)
  %107 = load ptr, ptr %17, align 8
  %108 = load i32, ptr @hf_gtpv2_mm_context_used_cipher, align 4
  %109 = load ptr, ptr %9, align 8
  %110 = load i32, ptr %18, align 4
  %111 = call ptr @proto_tree_add_item(ptr noundef %107, i32 noundef %108, ptr noundef %109, i32 noundef %110, i32 noundef 1, i32 noundef 0)
  %112 = load i32, ptr %18, align 4
  %113 = add i32 %112, 1
  store i32 %113, ptr %18, align 4
  %114 = load ptr, ptr %11, align 8
  %115 = load i32, ptr @hf_gtpv2_mm_context_kc, align 4
  %116 = load ptr, ptr %9, align 8
  %117 = load i32, ptr %18, align 4
  %118 = call ptr @proto_tree_add_item(ptr noundef %114, i32 noundef %115, ptr noundef %116, i32 noundef %117, i32 noundef 8, i32 noundef 0)
  %119 = load i32, ptr %18, align 4
  %120 = add i32 %119, 8
  store i32 %120, ptr %18, align 4
  %121 = load i8, ptr %21, align 1
  %122 = icmp ne i8 %121, 0
  br i1 %122, label %123, label %129

123:                                              ; preds = %8
  %124 = load ptr, ptr %9, align 8
  %125 = load ptr, ptr %11, align 8
  %126 = load i32, ptr %18, align 4
  %127 = load i8, ptr %21, align 1
  %128 = call i32 @dissect_gtpv2_authentication_triplets(ptr noundef %124, ptr noundef %125, i32 noundef %126, i8 noundef zeroext %127)
  br label %129

129:                                              ; preds = %123, %8
  %130 = load i8, ptr %20, align 1
  %131 = icmp ne i8 %130, 0
  br i1 %131, label %132, label %140

132:                                              ; preds = %129
  %133 = load ptr, ptr %11, align 8
  %134 = load i32, ptr @hf_gtpv2_mm_context_drx, align 4
  %135 = load ptr, ptr %9, align 8
  %136 = load i32, ptr %18, align 4
  %137 = call ptr @proto_tree_add_item(ptr noundef %133, i32 noundef %134, ptr noundef %135, i32 noundef %136, i32 noundef 2, i32 noundef 0)
  %138 = load i32, ptr %18, align 4
  %139 = add i32 %138, 2
  store i32 %139, ptr %18, align 4
  br label %140

140:                                              ; preds = %132, %129
  %141 = load ptr, ptr %9, align 8
  %142 = load ptr, ptr %10, align 8
  %143 = load ptr, ptr %11, align 8
  %144 = load i32, ptr %18, align 4
  %145 = load i8, ptr %23, align 1
  %146 = load i8, ptr %22, align 1
  %147 = call i32 @dissect_gtpv2_mm_context_common_data(ptr noundef %141, ptr noundef %142, ptr noundef %143, i32 noundef %144, i8 noundef zeroext %145, i8 noundef zeroext %146)
  store i32 %147, ptr %18, align 4
  %148 = load ptr, ptr %17, align 8
  %149 = load ptr, ptr %10, align 8
  %150 = load ptr, ptr %9, align 8
  %151 = load i32, ptr %18, align 4
  %152 = call ptr (ptr, ptr, ptr, ptr, i32, i32, ptr, ...) @proto_tree_add_expert_format(ptr noundef %148, ptr noundef %149, ptr noundef @ei_gtpv2_ie_data_not_dissected, ptr noundef %150, i32 noundef %151, i32 noundef -1, ptr noundef @.str.3)
  call void @llvm.lifetime.end.p0(i64 1, ptr %23) #11
  call void @llvm.lifetime.end.p0(i64 1, ptr %22) #11
  call void @llvm.lifetime.end.p0(i64 1, ptr %21) #11
  call void @llvm.lifetime.end.p0(i64 1, ptr %20) #11
  call void @llvm.lifetime.end.p0(i64 1, ptr %19) #11
  call void @llvm.lifetime.end.p0(i64 4, ptr %18) #11
  call void @llvm.lifetime.end.p0(i64 8, ptr %17) #11
  ret void
}