; Function Attrs: null_pointer_is_valid sspstrong uwtable
define internal void @dissect_gtpv2_mm_context_gsm_t(ptr noundef %0, ptr noundef %1, ptr noundef %2, ptr readnone captures(none) %3, i16 zeroext %4, i8 zeroext %5, i8 zeroext %6, ptr readnone captures(none) %7) #1 {
  %9 = load i32, ptr @ett_gtpv2_mm_context_flag, align 4
  %10 = tail call ptr @proto_tree_add_subtree(ptr noundef %2, ptr noundef %0, i32 noundef 0, i32 noundef 3, i32 noundef %9, ptr noundef null, ptr noundef nonnull @.str.1809)
  %11 = tail call zeroext i8 @tvb_get_uint8(ptr noundef %0, i32 noundef 0)
  %12 = load i32, ptr @hf_gtpv2_mm_context_sm, align 4
  %13 = tail call ptr @proto_tree_add_item(ptr noundef %10, i32 noundef %12, ptr noundef %0, i32 noundef 0, i32 noundef 1, i32 noundef 0)
  %14 = load i32, ptr @hf_gtpv2_spare_bits, align 4
  %15 = tail call ptr @proto_tree_add_bits_item(ptr noundef %10, i32 noundef %14, ptr noundef %0, i32 noundef 0, i32 noundef 1, i32 noundef 0)
  %16 = load i32, ptr @hf_gtpv2_mm_context_drxi, align 4
  %17 = tail call ptr @proto_tree_add_item(ptr noundef %10, i32 noundef %16, ptr noundef %0, i32 noundef 0, i32 noundef 1, i32 noundef 0)
  %18 = load i32, ptr @hf_gtpv2_mm_context_cksn, align 4
  %19 = tail call ptr @proto_tree_add_item(ptr noundef %10, i32 noundef %18, ptr noundef %0, i32 noundef 0, i32 noundef 1, i32 noundef 0)
  %20 = tail call zeroext i8 @tvb_get_uint8(ptr noundef %0, i32 noundef 1)
  %21 = load i32, ptr @hf_gtpv2_mm_context_nr_tri, align 4
  %22 = tail call ptr @proto_tree_add_item(ptr noundef %10, i32 noundef %21, ptr noundef %0, i32 noundef 1, i32 noundef 1, i32 noundef 0)
  %23 = load i32, ptr @hf_gtpv2_spare_bits, align 4
  %24 = tail call ptr @proto_tree_add_bits_item(ptr noundef %10, i32 noundef %23, ptr noundef %0, i32 noundef 11, i32 noundef 3, i32 noundef 0)
  %25 = load i32, ptr @hf_gtpv2_mm_context_uamb_ri, align 4
  %26 = tail call ptr @proto_tree_add_item(ptr noundef %10, i32 noundef %25, ptr noundef %0, i32 noundef 1, i32 noundef 1, i32 noundef 0)
  %27 = load i32, ptr @hf_gtpv2_mm_context_samb_ri, align 4
  %28 = tail call ptr @proto_tree_add_bits_item(ptr noundef %10, i32 noundef %27, ptr noundef %0, i32 noundef 15, i32 noundef 1, i32 noundef 0)
  %29 = load i32, ptr @hf_gtpv2_spare_bits, align 4
  %30 = tail call ptr @proto_tree_add_bits_item(ptr noundef %10, i32 noundef %29, ptr noundef %0, i32 noundef 16, i32 noundef 5, i32 noundef 0)
  %31 = load i32, ptr @hf_gtpv2_mm_context_used_cipher, align 4
  %32 = tail call ptr @proto_tree_add_item(ptr noundef %10, i32 noundef %31, ptr noundef %0, i32 noundef 2, i32 noundef 1, i32 noundef 0)
  %33 = load i32, ptr @hf_gtpv2_mm_context_kc, align 4
  %34 = tail call ptr @proto_tree_add_item(ptr noundef %2, i32 noundef %33, ptr noundef %0, i32 noundef 3, i32 noundef 8, i32 noundef 0)
  %.not = icmp ult i8 %20, 32
  br i1 %.not, label %dissect_gtpv2_authentication_triplets.exit, label %35

35:                                               ; preds = %8
  %36 = lshr i8 %20, 5
  %37 = zext nneg i8 %36 to i32
  br label %38

38:                                               ; preds = %38, %35
  %.021.i = phi i32 [ 0, %35 ], [ %50, %38 ]
  %.01920.i = phi i32 [ 11, %35 ], [ %49, %38 ]
  %39 = load i32, ptr @ett_gtpv2_mm_context_auth_tri, align 4
  %40 = tail call ptr (ptr, ptr, i32, i32, i32, ptr, ptr, ...) @proto_tree_add_subtree_format(ptr noundef %2, ptr noundef %0, i32 noundef %.01920.i, i32 noundef 0, i32 noundef %39, ptr noundef null, ptr noundef nonnull @.str.1810, i32 noundef %.021.i)
  %41 = load i32, ptr @hf_gtpv2_mm_context_rand, align 4
  %42 = tail call ptr @proto_tree_add_item(ptr noundef %40, i32 noundef %41, ptr noundef %0, i32 noundef %.01920.i, i32 noundef 16, i32 noundef 0)
  %43 = add nuw nsw i32 %.01920.i, 16
  %44 = load i32, ptr @hf_gtpv2_mm_context_sres, align 4
  %45 = tail call ptr @proto_tree_add_item(ptr noundef %40, i32 noundef %44, ptr noundef %0, i32 noundef %43, i32 noundef 4, i32 noundef 0)
  %46 = add nuw nsw i32 %.01920.i, 20
  %47 = load i32, ptr @hf_gtpv2_mm_context_kc, align 4
  %48 = tail call ptr @proto_tree_add_item(ptr noundef %40, i32 noundef %47, ptr noundef %0, i32 noundef %46, i32 noundef 8, i32 noundef 0)
  %49 = add nuw nsw i32 %.01920.i, 28
  %50 = add nuw nsw i32 %.021.i, 1
  %exitcond.not.i = icmp eq i32 %50, %37
  br i1 %exitcond.not.i, label %dissect_gtpv2_authentication_triplets.exit, label %38, !llvm.loop !25

dissect_gtpv2_authentication_triplets.exit:       ; preds = %38, %8
  %51 = and i8 %11, 8
  %.not67 = icmp eq i8 %51, 0
  br i1 %.not67, label %.split66, label %.split

.split:                                           ; preds = %dissect_gtpv2_authentication_triplets.exit
  %52 = load i32, ptr @hf_gtpv2_mm_context_drx, align 4
  %53 = tail call ptr @proto_tree_add_item(ptr noundef %2, i32 noundef %52, ptr noundef %0, i32 noundef 11, i32 noundef 2, i32 noundef 0)
  br label %.split66

.split66:                                         ; preds = %dissect_gtpv2_authentication_triplets.exit, %.split
  %.sink = phi i32 [ 13, %.split ], [ 11, %dissect_gtpv2_authentication_triplets.exit ]
  %54 = and i8 %20, 1
  %55 = lshr i8 %20, 1
  %56 = and i8 %55, 1
  %57 = tail call fastcc i32 @dissect_gtpv2_mm_context_common_data(ptr noundef %0, ptr noundef %1, ptr noundef %2, i32 noundef %.sink, i8 noundef zeroext %54, i8 noundef zeroext %56)
  %58 = tail call ptr (ptr, ptr, ptr, ptr, i32, i32, ptr, ...) @proto_tree_add_expert_format(ptr noundef %10, ptr noundef %1, ptr noundef nonnull @ei_gtpv2_ie_data_not_dissected, ptr noundef %0, i32 noundef %57, i32 noundef -1, ptr noundef nonnull @.str.3)
  ret void
}